; Function Attrs: mustprogress nofree norecurse nosync nounwind willreturn memory(argmem: readwrite) uwtable
define void @_ZN5boost4urls6detail8url_impl5splitEim(ptr nocapture noundef nonnull align 8 dereferenceable(171) %0, i32 noundef %1, i64 noundef %2) local_unnamed_addr #6 align 2 {
  %4 = icmp eq i32 %1, -1
  br i1 %4, label %_ZNK5boost4urls6detail8url_impl6offsetEi.exit, label %5

5:                                                ; preds = %3
  %6 = getelementptr inbounds nuw i8, ptr %0, i64 8
  %7 = sext i32 %1 to i64
  %8 = getelementptr inbounds [8 x i64], ptr %6, i64 0, i64 %7
  %9 = load i64, ptr %8, align 8, !tbaa !13
  br label %_ZNK5boost4urls6detail8url_impl6offsetEi.exit

_ZNK5boost4urls6detail8url_impl6offsetEi.exit:    ; preds = %3, %5
  %10 = phi i64 [ %9, %5 ], [ 0, %3 ]
  %11 = add i64 %10, %2
  %12 = getelementptr inbounds nuw i8, ptr %0, i64 8
  %13 = add nsw i32 %1, 1
  %14 = sext i32 %13 to i64
  %15 = getelementptr inbounds [8 x i64], ptr %12, i64 0, i64 %14
  store i64 %11, ptr %15, align 8, !tbaa !13
  ret void
}